target datalayout = "e-m:e-p270:32:32-p271:32:32-p272:64:64-i64:64-i128:128-f80:128-n8:16:32:64-S128"
target triple = "x86_64-pc-linux-gnu"

%struct.AVFrameSideData = type { i32, ptr, i64, ptr, ptr }

; Function Attrs: nounwind uwtable
define i32 @ff_alloc_a53_sei(ptr noundef %0, i64 noundef %1, ptr noundef %2, ptr noundef %3) #0 {
  %5 = alloca i32, align 4
  %6 = alloca ptr, align 8
  %7 = alloca i64, align 8
  %8 = alloca ptr, align 8
  %9 = alloca ptr, align 8
  %10 = alloca ptr, align 8
  %11 = alloca ptr, align 8
  %12 = alloca i32, align 4
  store ptr %0, ptr %6, align 8, !tbaa !4
  store i64 %1, ptr %7, align 8, !tbaa !9
  store ptr %2, ptr %8, align 8, !tbaa !11
  store ptr %3, ptr %9, align 8, !tbaa !13
  call void @llvm.lifetime.start.p0(i64 8, ptr %10) #6
  store ptr null, ptr %10, align 8, !tbaa !15
  call void @llvm.lifetime.start.p0(i64 8, ptr %11) #6
  %13 = load ptr, ptr %6, align 8, !tbaa !4
  %14 = icmp ne ptr %13, null
  br i1 %14, label %15, label %18

15:                                               ; preds = %4
  %16 = load ptr, ptr %6, align 8, !tbaa !4
  %17 = call ptr @av_frame_get_side_data(ptr noundef %16, i32 noundef 1)
  store ptr %17, ptr %10, align 8, !tbaa !15
  br label %18

18:                                               ; preds = %15, %4
  %19 = load ptr, ptr %10, align 8, !tbaa !15
  %20 = icmp ne ptr %19, null
  br i1 %20, label %23, label %21

21:                                               ; preds = %18
  %22 = load ptr, ptr %8, align 8, !tbaa !11
  store ptr null, ptr %22, align 8, !tbaa !17
  store i32 0, ptr %5, align 4
  store i32 1, ptr %12, align 4
  br label %79

23:                                               ; preds = %18
  %24 = load ptr, ptr %10, align 8, !tbaa !15
  %25 = getelementptr inbounds nuw %struct.AVFrameSideData, ptr %24, i32 0, i32 2
  %26 = load i64, ptr %25, align 8, !tbaa !18
  %27 = add i64 %26, 11
  %28 = load ptr, ptr %9, align 8, !tbaa !13
  store i64 %27, ptr %28, align 8, !tbaa !9
  %29 = load ptr, ptr %9, align 8, !tbaa !13
  %30 = load i64, ptr %29, align 8, !tbaa !9
  %31 = load i64, ptr %7, align 8, !tbaa !9
  %32 = add i64 %30, %31
  %33 = call noalias ptr @av_mallocz(i64 noundef %32)
  %34 = load ptr, ptr %8, align 8, !tbaa !11
  store ptr %33, ptr %34, align 8, !tbaa !17
  %35 = load ptr, ptr %8, align 8, !tbaa !11
  %36 = load ptr, ptr %35, align 8, !tbaa !17
  %37 = icmp ne ptr %36, null
  br i1 %37, label %39, label %38

38:                                               ; preds = %23
  store i32 -12, ptr %5, align 4
  store i32 1, ptr %12, align 4
  br label %79

39:                                               ; preds = %23
  %40 = load ptr, ptr %8, align 8, !tbaa !11
  %41 = load ptr, ptr %40, align 8, !tbaa !17
  %42 = load i64, ptr %7, align 8, !tbaa !9
  %43 = getelementptr inbounds nuw i8, ptr %41, i64 %42
  store ptr %43, ptr %11, align 8, !tbaa !24
  %44 = load ptr, ptr %11, align 8, !tbaa !24
  %45 = getelementptr inbounds i8, ptr %44, i64 0
  store i8 -75, ptr %45, align 1, !tbaa !25
  %46 = load ptr, ptr %11, align 8, !tbaa !24
  %47 = getelementptr inbounds i8, ptr %46, i64 1
  store i8 0, ptr %47, align 1, !tbaa !25
  %48 = load ptr, ptr %11, align 8, !tbaa !24
  %49 = getelementptr inbounds i8, ptr %48, i64 2
  store i8 49, ptr %49, align 1, !tbaa !25
  %50 = load ptr, ptr %11, align 8, !tbaa !24
  %51 = getelementptr inbounds i8, ptr %50, i64 3
  store i32 876167495, ptr %51, align 1, !tbaa !25
  %52 = load ptr, ptr %11, align 8, !tbaa !24
  %53 = getelementptr inbounds i8, ptr %52, i64 7
  store i8 3, ptr %53, align 1, !tbaa !25
  %54 = load ptr, ptr %10, align 8, !tbaa !15
  %55 = getelementptr inbounds nuw %struct.AVFrameSideData, ptr %54, i32 0, i32 2
  %56 = load i64, ptr %55, align 8, !tbaa !18
  %57 = udiv i64 %56, 3
  %58 = and i64 %57, 31
  %59 = or i64 %58, 64
  %60 = trunc i64 %59 to i8
  %61 = load ptr, ptr %11, align 8, !tbaa !24
  %62 = getelementptr inbounds i8, ptr %61, i64 8
  store i8 %60, ptr %62, align 1, !tbaa !25
  %63 = load ptr, ptr %11, align 8, !tbaa !24
  %64 = getelementptr inbounds i8, ptr %63, i64 9
  store i8 0, ptr %64, align 1, !tbaa !25
  %65 = load ptr, ptr %11, align 8, !tbaa !24
  %66 = getelementptr inbounds i8, ptr %65, i64 10
  %67 = load ptr, ptr %10, align 8, !tbaa !15
  %68 = getelementptr inbounds nuw %struct.AVFrameSideData, ptr %67, i32 0, i32 1
  %69 = load ptr, ptr %68, align 8, !tbaa !26
  %70 = load ptr, ptr %10, align 8, !tbaa !15
  %71 = getelementptr inbounds nuw %struct.AVFrameSideData, ptr %70, i32 0, i32 2
  %72 = load i64, ptr %71, align 8, !tbaa !18
  call void @llvm.memcpy.p0.p0.i64(ptr align 1 %66, ptr align 1 %69, i64 %72, i1 false)
  %73 = load ptr, ptr %11, align 8, !tbaa !24
  %74 = load ptr, ptr %10, align 8, !tbaa !15
  %75 = getelementptr inbounds nuw %struct.AVFrameSideData, ptr %74, i32 0, i32 2
  %76 = load i64, ptr %75, align 8, !tbaa !18
  %77 = add i64 %76, 10
  %78 = getelementptr inbounds nuw i8, ptr %73, i64 %77
  store i8 -1, ptr %78, align 1, !tbaa !25
  store i32 0, ptr %5, align 4
  store i32 1, ptr %12, align 4
  br label %79

79:                                               ; preds = %39, %38, %21
  call void @llvm.lifetime.end.p0(i64 8, ptr %11) #6
  call void @llvm.lifetime.end.p0(i64 8, ptr %10) #6
  %80 = load i32, ptr %5, align 4
  ret i32 %80
}