; Function Attrs: nounwind uwtable
define range(i32 -12, 1) i32 @ff_alloc_a53_sei(ptr noundef %0, i64 noundef %1, ptr noundef writeonly captures(none) initializes((0, 8)) %2, ptr noundef writeonly captures(none) %3) local_unnamed_addr #0 {
  %.not = icmp eq ptr %0, null
  br i1 %.not, label %.thread, label %5

5:                                                ; preds = %4
  %6 = tail call ptr @av_frame_get_side_data(ptr noundef nonnull %0, i32 noundef 1) #4
  %.not28 = icmp eq ptr %6, null
  br i1 %.not28, label %.thread, label %7

.thread:                                          ; preds = %4, %5
  store ptr null, ptr %2, align 8, !tbaa !4
  br label %31

7:                                                ; preds = %5
  %8 = getelementptr inbounds nuw i8, ptr %6, i64 16
  %9 = load i64, ptr %8, align 8, !tbaa !8
  %10 = add i64 %9, 11
  store i64 %10, ptr %3, align 8, !tbaa !15
  %11 = add i64 %10, %1
  %12 = tail call noalias ptr @av_mallocz(i64 noundef %11) #4
  store ptr %12, ptr %2, align 8, !tbaa !4
  %.not29 = icmp eq ptr %12, null
  br i1 %.not29, label %31, label %13

13:                                               ; preds = %7
  %14 = getelementptr inbounds nuw i8, ptr %12, i64 %1
  store i8 -75, ptr %14, align 1, !tbaa !16
  %15 = getelementptr inbounds nuw i8, ptr %14, i64 1
  store i8 0, ptr %15, align 1, !tbaa !16
  %16 = getelementptr inbounds nuw i8, ptr %14, i64 2
  store i8 49, ptr %16, align 1, !tbaa !16
  %17 = getelementptr inbounds nuw i8, ptr %14, i64 3
  store i32 876167495, ptr %17, align 1, !tbaa !16
  %18 = getelementptr inbounds nuw i8, ptr %14, i64 7
  store i8 3, ptr %18, align 1, !tbaa !16
  %19 = load i64, ptr %8, align 8, !tbaa !8
  %20 = udiv i64 %19, 3
  %21 = trunc i64 %20 to i8
  %22 = and i8 %21, 31
  %23 = or disjoint i8 %22, 64
  %24 = getelementptr inbounds nuw i8, ptr %14, i64 8
  store i8 %23, ptr %24, align 1, !tbaa !16
  %25 = getelementptr inbounds nuw i8, ptr %14, i64 9
  store i8 0, ptr %25, align 1, !tbaa !16
  %26 = getelementptr inbounds nuw i8, ptr %14, i64 10
  %27 = getelementptr inbounds nuw i8, ptr %6, i64 8
  %28 = load ptr, ptr %27, align 8, !tbaa !17
  tail call void @llvm.memcpy.p0.p0.i64(ptr nonnull align 1 %26, ptr align 1 %28, i64 %19, i1 false)
  %29 = getelementptr i8, ptr %14, i64 %19
  %30 = getelementptr i8, ptr %29, i64 10
  store i8 -1, ptr %30, align 1, !tbaa !16
  br label %31

31:                                               ; preds = %7, %13, %.thread
  %.0 = phi i32 [ 0, %13 ], [ 0, %.thread ], [ -12, %7 ]
  ret i32 %.0
}